target datalayout = "e-m:e-p270:32:32-p271:32:32-p272:64:64-i64:64-i128:128-f80:128-n8:16:32:64-S128"
target triple = "x86_64-pc-linux-gnu"

%struct.ForEachState = type { ptr, i32 }
%struct.List = type { i32, i32, i32, ptr, [0 x %union.ListCell] }
%union.ListCell = type { ptr }
%struct.String = type { i32, ptr }

@.str.2 = private unnamed_addr constant [16 x i8] c"event_trigger.c\00", align 1
@.str.31 = private unnamed_addr constant [58 x i8] c"filter value \22%s\22 not recognized for filter variable \22%s\22\00", align 1
@__func__.validate_ddl_tags = private unnamed_addr constant [18 x i8] c"validate_ddl_tags\00", align 1
@.str.32 = private unnamed_addr constant [40 x i8] c"event triggers are not supported for %s\00", align 1

; Function Attrs: nounwind uwtable
define internal void @validate_ddl_tags(ptr noundef %0, ptr noundef %1) #0 {
  %3 = alloca ptr, align 8
  %4 = alloca ptr, align 8
  %5 = alloca ptr, align 8
  %6 = alloca %struct.ForEachState, align 8
  %7 = alloca ptr, align 8
  %8 = alloca i32, align 4
  store ptr %0, ptr %3, align 8
  store ptr %1, ptr %4, align 8
  call void @llvm.lifetime.start.p0(i64 8, ptr %5) #10
  call void @llvm.lifetime.start.p0(i64 16, ptr %6) #10
  %9 = getelementptr inbounds nuw %struct.ForEachState, ptr %6, i32 0, i32 0
  %10 = load ptr, ptr %4, align 8
  store ptr %10, ptr %9, align 8
  %11 = getelementptr inbounds nuw %struct.ForEachState, ptr %6, i32 0, i32 1
  store i32 0, ptr %11, align 8
  %12 = getelementptr i8, ptr %6, i64 12
  call void @llvm.memset.p0.i64(ptr align 4 %12, i8 0, i64 4, i1 false)
  br label %13

13:                                               ; preds = %79, %2
  %14 = getelementptr inbounds nuw %struct.ForEachState, ptr %6, i32 0, i32 0
  %15 = load ptr, ptr %14, align 8
  %16 = icmp ne ptr %15, null
  br i1 %16, label %17, label %34

17:                                               ; preds = %13
  %18 = getelementptr inbounds nuw %struct.ForEachState, ptr %6, i32 0, i32 1
  %19 = load i32, ptr %18, align 8
  %20 = getelementptr inbounds nuw %struct.ForEachState, ptr %6, i32 0, i32 0
  %21 = load ptr, ptr %20, align 8
  %22 = getelementptr inbounds nuw %struct.List, ptr %21, i32 0, i32 1
  %23 = load i32, ptr %22, align 4
  %24 = icmp slt i32 %19, %23
  br i1 %24, label %25, label %34

25:                                               ; preds = %17
  %26 = getelementptr inbounds nuw %struct.ForEachState, ptr %6, i32 0, i32 0
  %27 = load ptr, ptr %26, align 8
  %28 = getelementptr inbounds nuw %struct.List, ptr %27, i32 0, i32 3
  %29 = load ptr, ptr %28, align 8
  %30 = getelementptr inbounds nuw %struct.ForEachState, ptr %6, i32 0, i32 1
  %31 = load i32, ptr %30, align 8
  %32 = sext i32 %31 to i64
  %33 = getelementptr inbounds %union.ListCell, ptr %29, i64 %32
  store ptr %33, ptr %5, align 8
  br label %35

34:                                               ; preds = %17, %13
  store ptr null, ptr %5, align 8
  br label %35

35:                                               ; preds = %34, %25
  %36 = phi i32 [ 1, %25 ], [ 0, %34 ]
  %37 = icmp ne i32 %36, 0
  br i1 %37, label %39, label %38

38:                                               ; preds = %35
  call void @llvm.lifetime.end.p0(i64 16, ptr %6) #10
  br label %83

39:                                               ; preds = %35
  call void @llvm.lifetime.start.p0(i64 8, ptr %7) #10
  %40 = load ptr, ptr %5, align 8
  %41 = load ptr, ptr %40, align 8
  %42 = getelementptr inbounds nuw %struct.String, ptr %41, i32 0, i32 1
  %43 = load ptr, ptr %42, align 8
  store ptr %43, ptr %7, align 8
  call void @llvm.lifetime.start.p0(i64 4, ptr %8) #10
  %44 = load ptr, ptr %7, align 8
  %45 = call i32 @GetCommandTagEnum(ptr noundef %44)
  store i32 %45, ptr %8, align 4
  %46 = load i32, ptr %8, align 4
  %47 = icmp eq i32 %46, 0
  br i1 %47, label %48, label %62

48:                                               ; preds = %39
  br label %49

49:                                               ; preds = %48
  br i1 true, label %50, label %52

50:                                               ; preds = %49
  %51 = call zeroext i1 @errstart_cold(i32 noundef 21, ptr noundef null) #11
  br i1 %51, label %54, label %59

52:                                               ; preds = %49
  %53 = call zeroext i1 @errstart(i32 noundef 21, ptr noundef null)
  br i1 %53, label %54, label %59

54:                                               ; preds = %52, %50
  %55 = call i32 @errcode(i32 noundef 16801924)
  %56 = load ptr, ptr %7, align 8
  %57 = load ptr, ptr %3, align 8
  %58 = call i32 (ptr, ...) @errmsg(ptr noundef @.str.31, ptr noundef %56, ptr noundef %57)
  call void @errfinish(ptr noundef @.str.2, i32 noundef 225, ptr noundef @__func__.validate_ddl_tags)
  br label %59

59:                                               ; preds = %54, %52, %50
  unreachable

60:                                               ; No predecessors!
  br label %61

61:                                               ; preds = %60
  br label %62

62:                                               ; preds = %61, %39
  %63 = load i32, ptr %8, align 4
  %64 = call zeroext i1 @command_tag_event_trigger_ok(i32 noundef %63)
  br i1 %64, label %78, label %65

65:                                               ; preds = %62
  br label %66

66:                                               ; preds = %65
  br i1 true, label %67, label %69

67:                                               ; preds = %66
  %68 = call zeroext i1 @errstart_cold(i32 noundef 21, ptr noundef null) #11
  br i1 %68, label %71, label %75

69:                                               ; preds = %66
  %70 = call zeroext i1 @errstart(i32 noundef 21, ptr noundef null)
  br i1 %70, label %71, label %75

71:                                               ; preds = %69, %67
  %72 = call i32 @errcode(i32 noundef 1088)
  %73 = load ptr, ptr %7, align 8
  %74 = call i32 (ptr, ...) @errmsg(ptr noundef @.str.32, ptr noundef %73)
  call void @errfinish(ptr noundef @.str.2, i32 noundef 231, ptr noundef @__func__.validate_ddl_tags)
  br label %75

75:                                               ; preds = %71, %69, %67
  unreachable

76:                                               ; No predecessors!
  br label %77

77:                                               ; preds = %76
  br label %78

78:                                               ; preds = %77, %62
  call void @llvm.lifetime.end.p0(i64 4, ptr %8) #10
  call void @llvm.lifetime.end.p0(i64 8, ptr %7) #10
  br label %79

79:                                               ; preds = %78
  %80 = getelementptr inbounds nuw %struct.ForEachState, ptr %6, i32 0, i32 1
  %81 = load i32, ptr %80, align 8
  %82 = add i32 %81, 1
  store i32 %82, ptr %80, align 8
  br label %13, !llvm.loop !6

83:                                               ; preds = %38
  call void @llvm.lifetime.end.p0(i64 8, ptr %5) #10
  ret void
}