; Function Attrs: nounwind uwtable
define internal fastcc void @validate_ddl_tags(ptr noundef nonnull readonly captures(none) %0) unnamed_addr #0 {
  %2 = getelementptr inbounds nuw i8, ptr %0, i64 4
  %3 = load i32, ptr %2, align 4
  %.not4 = icmp sgt i32 %3, 0
  br i1 %.not4, label %.lr.ph, label %._crit_edge

.lr.ph:                                           ; preds = %1
  %4 = getelementptr inbounds nuw i8, ptr %0, i64 16
  br label %8

5:                                                ; preds = %20
  %indvars.iv.next = add nuw nsw i64 %indvars.iv, 1
  %6 = load i32, ptr %2, align 4
  %7 = sext i32 %6 to i64
  %.not = icmp slt i64 %indvars.iv.next, %7
  br i1 %.not, label %8, label %._crit_edge, !llvm.loop !8

._crit_edge:                                      ; preds = %5, %1
  ret void

8:                                                ; preds = %.lr.ph, %5
  %indvars.iv = phi i64 [ 0, %.lr.ph ], [ %indvars.iv.next, %5 ]
  %9 = load ptr, ptr %4, align 8
  %10 = getelementptr inbounds nuw %union.ListCell, ptr %9, i64 %indvars.iv
  %11 = load ptr, ptr %10, align 8
  %12 = getelementptr inbounds nuw i8, ptr %11, i64 8
  %13 = load ptr, ptr %12, align 8
  %14 = tail call i32 @GetCommandTagEnum(ptr noundef %13) #16
  %15 = icmp eq i32 %14, 0
  br i1 %15, label %16, label %20

16:                                               ; preds = %8
  %17 = tail call zeroext i1 @errstart_cold(i32 noundef 21, ptr noundef null) #17
  tail call void @llvm.assume(i1 %17)
  %18 = tail call i32 @errcode(i32 noundef 16801924) #16
  %19 = tail call i32 (ptr, ...) @errmsg(ptr noundef nonnull @.str.31, ptr noundef %13, ptr noundef nonnull @.str.9) #16
  tail call void @errfinish(ptr noundef nonnull @.str.2, i32 noundef 225, ptr noundef nonnull @__func__.validate_ddl_tags) #16
  unreachable

20:                                               ; preds = %8
  %21 = tail call zeroext i1 @command_tag_event_trigger_ok(i32 noundef %14) #16
  br i1 %21, label %5, label %22

22:                                               ; preds = %20
  %23 = tail call zeroext i1 @errstart_cold(i32 noundef 21, ptr noundef null) #17
  tail call void @llvm.assume(i1 %23)
  %24 = tail call i32 @errcode(i32 noundef 1088) #16
  %25 = tail call i32 (ptr, ...) @errmsg(ptr noundef nonnull @.str.32, ptr noundef %13) #16
  tail call void @errfinish(ptr noundef nonnull @.str.2, i32 noundef 231, ptr noundef nonnull @__func__.validate_ddl_tags) #16
  unreachable
}